; ModuleID = '47/2908.c'
source_filename = "47/2908.c"
target datalayout = "e-m:e-p270:32:32-p271:32:32-p272:64:64-i64:64-f80:128-n8:16:32:64-S128"
target triple = "x86_64-pc-linux-gnu"

@.str = private unnamed_addr constant [3 x i8] c"%d\00", align 1
@.str.1 = private unnamed_addr constant [4 x i8] c" %d\00", align 1

; Function Attrs: noinline nounwind uwtable
define dso_local void @main() #0 {
  %1 = alloca i32, align 4
  %2 = alloca i32, align 4
  %3 = alloca i32*, align 8
  %4 = alloca [100 x i32], align 16
  %5 = alloca i32, align 4
  %6 = alloca i32, align 4
  %7 = bitcast [100 x i32]* %4 to i8*
  call void @llvm.memset.p0i8.i64(i8* align 16 %7, i8 0, i64 400, i1 false)
  store i32 0, i32* %6, align 4
  %8 = call i32 (i8*, ...) @__isoc99_scanf(i8* getelementptr inbounds ([3 x i8], [3 x i8]* @.str, i64 0, i64 0), i32* %5)
  store i32 0, i32* %1, align 4
  br label %9

9:                                                ; preds = %18, %0
  %10 = load i32, i32* %1, align 4
  %11 = load i32, i32* %5, align 4
  %12 = icmp slt i32 %10, %11
  br i1 %12, label %13, label %21

13:                                               ; preds = %9
  %14 = load i32, i32* %1, align 4
  %15 = sext i32 %14 to i64
  %16 = getelementptr inbounds [100 x i32], [100 x i32]* %4, i64 0, i64 %15
  %17 = call i32 (i8*, ...) @__isoc99_scanf(i8* getelementptr inbounds ([3 x i8], [3 x i8]* @.str, i64 0, i64 0), i32* %16)
  br label %18

18:                                               ; preds = %13
  %19 = load i32, i32* %1, align 4
  %20 = add nsw i32 %19, 1
  store i32 %20, i32* %1, align 4
  br label %9

21:                                               ; preds = %9
  %22 = getelementptr inbounds [100 x i32], [100 x i32]* %4, i64 0, i64 0
  store i32* %22, i32** %3, align 8
  store i32 0, i32* %1, align 4
  br label %23

23:                                               ; preds = %62, %21
  %24 = load i32, i32* %1, align 4
  %25 = load i32, i32* %5, align 4
  %26 = sub nsw i32 %25, 1
  %27 = icmp slt i32 %24, %26
  br i1 %27, label %28, label %65

28:                                               ; preds = %23
  %29 = load i32*, i32** %3, align 8
  %30 = load i32, i32* %5, align 4
  %31 = sub nsw i32 %30, 1
  %32 = sext i32 %31 to i64
  %33 = getelementptr inbounds i32, i32* %29, i64 %32
  %34 = load i32, i32* %33, align 4
  store i32 %34, i32* %6, align 4
  %35 = load i32, i32* %5, align 4
  %36 = sub nsw i32 %35, 1
  store i32 %36, i32* %2, align 4
  br label %37

37:                                               ; preds = %53, %28
  %38 = load i32, i32* %2, align 4
  %39 = load i32, i32* %1, align 4
  %40 = add nsw i32 %39, 1
  %41 = icmp sge i32 %38, %40
  br i1 %41, label %42, label %56

42:                                               ; preds = %37
  %43 = load i32*, i32** %3, align 8
  %44 = load i32, i32* %2, align 4
  %45 = sub nsw i32 %44, 1
  %46 = sext i32 %45 to i64
  %47 = getelementptr inbounds i32, i32* %43, i64 %46
  %48 = load i32, i32* %47, align 4
  %49 = load i32*, i32** %3, align 8
  %50 = load i32, i32* %2, align 4
  %51 = sext i32 %50 to i64
  %52 = getelementptr inbounds i32, i32* %49, i64 %51
  store i32 %48, i32* %52, align 4
  br label %53

53:                                               ; preds = %42
  %54 = load i32, i32* %2, align 4
  %55 = add nsw i32 %54, -1
  store i32 %55, i32* %2, align 4
  br label %37

56:                                               ; preds = %37
  %57 = load i32, i32* %6, align 4
  %58 = load i32*, i32** %3, align 8
  %59 = load i32, i32* %1, align 4
  %60 = sext i32 %59 to i64
  %61 = getelementptr inbounds i32, i32* %58, i64 %60
  store i32 %57, i32* %61, align 4
  br label %62

62:                                               ; preds = %56
  %63 = load i32, i32* %1, align 4
  %64 = add nsw i32 %63, 1
  store i32 %64, i32* %1, align 4
  br label %23

65:                                               ; preds = %23
  %66 = load i32*, i32** %3, align 8
  %67 = load i32, i32* %66, align 4
  %68 = call i32 (i8*, ...) @printf(i8* getelementptr inbounds ([3 x i8], [3 x i8]* @.str, i64 0, i64 0), i32 %67)
  %69 = getelementptr inbounds [100 x i32], [100 x i32]* %4, i64 0, i64 0
  %70 = getelementptr inbounds i32, i32* %69, i64 1
  store i32* %70, i32** %3, align 8
  br label %71

71:                                               ; preds = %82, %65
  %72 = load i32*, i32** %3, align 8
  %73 = getelementptr inbounds [100 x i32], [100 x i32]* %4, i64 0, i64 0
  %74 = load i32, i32* %5, align 4
  %75 = sext i32 %74 to i64
  %76 = getelementptr inbounds i32, i32* %73, i64 %75
  %77 = icmp ult i32* %72, %76
  br i1 %77, label %78, label %85

78:                                               ; preds = %71
  %79 = load i32*, i32** %3, align 8
  %80 = load i32, i32* %79, align 4
  %81 = call i32 (i8*, ...) @printf(i8* getelementptr inbounds ([4 x i8], [4 x i8]* @.str.1, i64 0, i64 0), i32 %80)
  br label %82

82:                                               ; preds = %78
  %83 = load i32*, i32** %3, align 8
  %84 = getelementptr inbounds i32, i32* %83, i32 1
  store i32* %84, i32** %3, align 8
  br label %71

85:                                               ; preds = %71
  ret void
}

; Function Attrs: argmemonly nounwind willreturn
declare void @llvm.memset.p0i8.i64(i8* nocapture writeonly, i8, i64, i1 immarg) #1

declare dso_local i32 @__isoc99_scanf(i8*, ...) #2

declare dso_local i32 @printf(i8*, ...) #2


!llvm.module.flags = !{!0}
!llvm.ident = !{!1}

!0 = !{i32 1, !"wchar_size", i32 4}
!1 = !{!"clang version 10.0.0-4ubuntu1 "}
